; ModuleID = '47/3673.c'
source_filename = "47/3673.c"
target datalayout = "e-m:e-p270:32:32-p271:32:32-p272:64:64-i64:64-f80:128-n8:16:32:64-S128"
target triple = "x86_64-pc-linux-gnu"

@.str = private unnamed_addr constant [3 x i8] c"%d\00", align 1
@.str.1 = private unnamed_addr constant [4 x i8] c"%d \00", align 1

; Function Attrs: noinline nounwind uwtable
define dso_local i32 @main(i32 %0, i8** %1) #0 {
  %3 = alloca i32, align 4
  %4 = alloca i32, align 4
  %5 = alloca i8**, align 8
  %6 = alloca i32, align 4
  %7 = alloca i32, align 4
  %8 = alloca i32, align 4
  %9 = alloca [100 x i32], align 16
  store i32 0, i32* %3, align 4
  store i32 %0, i32* %4, align 4
  store i8** %1, i8*** %5, align 8
  %10 = bitcast [100 x i32]* %9 to i8*
  call void @llvm.memset.p0i8.i64(i8* align 16 %10, i8 0, i64 400, i1 false)
  %11 = call i32 (i8*, ...) @__isoc99_scanf(i8* getelementptr inbounds ([3 x i8], [3 x i8]* @.str, i64 0, i64 0), i32* %7)
  store i32 0, i32* %6, align 4
  br label %12

12:                                               ; preds = %21, %2
  %13 = load i32, i32* %6, align 4
  %14 = load i32, i32* %7, align 4
  %15 = icmp slt i32 %13, %14
  br i1 %15, label %16, label %24

16:                                               ; preds = %12
  %17 = load i32, i32* %6, align 4
  %18 = sext i32 %17 to i64
  %19 = getelementptr inbounds [100 x i32], [100 x i32]* %9, i64 0, i64 %18
  %20 = call i32 (i8*, ...) @__isoc99_scanf(i8* getelementptr inbounds ([3 x i8], [3 x i8]* @.str, i64 0, i64 0), i32* %19)
  br label %21

21:                                               ; preds = %16
  %22 = load i32, i32* %6, align 4
  %23 = add nsw i32 %22, 1
  store i32 %23, i32* %6, align 4
  br label %12

24:                                               ; preds = %12
  store i32 100, i32* %8, align 4
  br label %25

25:                                               ; preds = %56, %24
  %26 = load i32, i32* %8, align 4
  %27 = icmp sge i32 %26, 0
  br i1 %27, label %28, label %59

28:                                               ; preds = %25
  %29 = load i32, i32* %8, align 4
  %30 = load i32, i32* %7, align 4
  %31 = icmp sge i32 %29, %30
  br i1 %31, label %32, label %33

32:                                               ; preds = %28
  br label %56

33:                                               ; preds = %28
  %34 = load i32, i32* %8, align 4
  %35 = load i32, i32* %7, align 4
  %36 = icmp slt i32 %34, %35
  br i1 %36, label %37, label %46

37:                                               ; preds = %33
  %38 = load i32, i32* %8, align 4
  %39 = icmp sgt i32 %38, 0
  br i1 %39, label %40, label %46

40:                                               ; preds = %37
  %41 = load i32, i32* %8, align 4
  %42 = sext i32 %41 to i64
  %43 = getelementptr inbounds [100 x i32], [100 x i32]* %9, i64 0, i64 %42
  %44 = load i32, i32* %43, align 4
  %45 = call i32 (i8*, ...) @printf(i8* getelementptr inbounds ([4 x i8], [4 x i8]* @.str.1, i64 0, i64 0), i32 %44)
  br label %54

46:                                               ; preds = %37, %33
  %47 = load i32, i32* %8, align 4
  %48 = icmp eq i32 %47, 0
  br i1 %48, label %49, label %53

49:                                               ; preds = %46
  %50 = getelementptr inbounds [100 x i32], [100 x i32]* %9, i64 0, i64 0
  %51 = load i32, i32* %50, align 16
  %52 = call i32 (i8*, ...) @printf(i8* getelementptr inbounds ([3 x i8], [3 x i8]* @.str, i64 0, i64 0), i32 %51)
  br label %53

53:                                               ; preds = %49, %46
  br label %54

54:                                               ; preds = %53, %40
  br label %55

55:                                               ; preds = %54
  br label %56

56:                                               ; preds = %55, %32
  %57 = load i32, i32* %8, align 4
  %58 = add nsw i32 %57, -1
  store i32 %58, i32* %8, align 4
  br label %25

59:                                               ; preds = %25
  ret i32 0
}

; Function Attrs: argmemonly nounwind willreturn
declare void @llvm.memset.p0i8.i64(i8* nocapture writeonly, i8, i64, i1 immarg) #1

declare dso_local i32 @__isoc99_scanf(i8*, ...) #2

declare dso_local i32 @printf(i8*, ...) #2


!llvm.module.flags = !{!0}
!llvm.ident = !{!1}

!0 = !{i32 1, !"wchar_size", i32 4}
!1 = !{!"clang version 10.0.0-4ubuntu1 "}
